target datalayout = "e-m:e-p270:32:32-p271:32:32-p272:64:64-i64:64-i128:128-f80:128-n8:16:32:64-S128"
target triple = "x86_64-pc-linux-gnu"

%struct.png_row_info_struct = type { i32, i64, i8, i8, i8, i8 }

; Function Attrs: nounwind uwtable
define internal void @png_read_filter_row_paeth_1byte_pixel(ptr noundef %0, ptr noundef %1, ptr noundef %2) #0 {
  %4 = alloca ptr, align 8
  %5 = alloca ptr, align 8
  %6 = alloca ptr, align 8
  %7 = alloca ptr, align 8
  %8 = alloca i32, align 4
  %9 = alloca i32, align 4
  %10 = alloca i32, align 4
  %11 = alloca i32, align 4
  %12 = alloca i32, align 4
  %13 = alloca i32, align 4
  %14 = alloca i32, align 4
  store ptr %0, ptr %4, align 8, !tbaa !69
  store ptr %1, ptr %5, align 8, !tbaa !8
  store ptr %2, ptr %6, align 8, !tbaa !8
  call void @llvm.lifetime.start.p0(i64 8, ptr %7) #7
  %15 = load ptr, ptr %5, align 8, !tbaa !8
  %16 = load ptr, ptr %4, align 8, !tbaa !69
  %17 = getelementptr inbounds nuw %struct.png_row_info_struct, ptr %16, i32 0, i32 1
  %18 = load i64, ptr %17, align 8, !tbaa !82
  %19 = getelementptr inbounds nuw i8, ptr %15, i64 %18
  store ptr %19, ptr %7, align 8, !tbaa !8
  call void @llvm.lifetime.start.p0(i64 4, ptr %8) #7
  call void @llvm.lifetime.start.p0(i64 4, ptr %9) #7
  %20 = load ptr, ptr %6, align 8, !tbaa !8
  %21 = getelementptr inbounds nuw i8, ptr %20, i32 1
  store ptr %21, ptr %6, align 8, !tbaa !8
  %22 = load i8, ptr %20, align 1, !tbaa !10
  %23 = zext i8 %22 to i32
  store i32 %23, ptr %9, align 4, !tbaa !11
  %24 = load ptr, ptr %5, align 8, !tbaa !8
  %25 = load i8, ptr %24, align 1, !tbaa !10
  %26 = zext i8 %25 to i32
  %27 = load i32, ptr %9, align 4, !tbaa !11
  %28 = add nsw i32 %26, %27
  store i32 %28, ptr %8, align 4, !tbaa !11
  %29 = load i32, ptr %8, align 4, !tbaa !11
  %30 = trunc i32 %29 to i8
  %31 = load ptr, ptr %5, align 8, !tbaa !8
  %32 = getelementptr inbounds nuw i8, ptr %31, i32 1
  store ptr %32, ptr %5, align 8, !tbaa !8
  store i8 %30, ptr %31, align 1, !tbaa !10
  br label %33

33:                                               ; preds = %95, %3
  %34 = load ptr, ptr %5, align 8, !tbaa !8
  %35 = load ptr, ptr %7, align 8, !tbaa !8
  %36 = icmp ult ptr %34, %35
  br i1 %36, label %37, label %106

37:                                               ; preds = %33
  call void @llvm.lifetime.start.p0(i64 4, ptr %10) #7
  call void @llvm.lifetime.start.p0(i64 4, ptr %11) #7
  call void @llvm.lifetime.start.p0(i64 4, ptr %12) #7
  call void @llvm.lifetime.start.p0(i64 4, ptr %13) #7
  call void @llvm.lifetime.start.p0(i64 4, ptr %14) #7
  %38 = load i32, ptr %8, align 4, !tbaa !11
  %39 = and i32 %38, 255
  store i32 %39, ptr %8, align 4, !tbaa !11
  %40 = load ptr, ptr %6, align 8, !tbaa !8
  %41 = getelementptr inbounds nuw i8, ptr %40, i32 1
  store ptr %41, ptr %6, align 8, !tbaa !8
  %42 = load i8, ptr %40, align 1, !tbaa !10
  %43 = zext i8 %42 to i32
  store i32 %43, ptr %10, align 4, !tbaa !11
  %44 = load i32, ptr %10, align 4, !tbaa !11
  %45 = load i32, ptr %9, align 4, !tbaa !11
  %46 = sub nsw i32 %44, %45
  store i32 %46, ptr %14, align 4, !tbaa !11
  %47 = load i32, ptr %8, align 4, !tbaa !11
  %48 = load i32, ptr %9, align 4, !tbaa !11
  %49 = sub nsw i32 %47, %48
  store i32 %49, ptr %13, align 4, !tbaa !11
  %50 = load i32, ptr %14, align 4, !tbaa !11
  %51 = icmp slt i32 %50, 0
  br i1 %51, label %52, label %55

52:                                               ; preds = %37
  %53 = load i32, ptr %14, align 4, !tbaa !11
  %54 = sub nsw i32 0, %53
  br label %57

55:                                               ; preds = %37
  %56 = load i32, ptr %14, align 4, !tbaa !11
  br label %57

57:                                               ; preds = %55, %52
  %58 = phi i32 [ %54, %52 ], [ %56, %55 ]
  store i32 %58, ptr %11, align 4, !tbaa !11
  %59 = load i32, ptr %13, align 4, !tbaa !11
  %60 = icmp slt i32 %59, 0
  br i1 %60, label %61, label %64

61:                                               ; preds = %57
  %62 = load i32, ptr %13, align 4, !tbaa !11
  %63 = sub nsw i32 0, %62
  br label %66

64:                                               ; preds = %57
  %65 = load i32, ptr %13, align 4, !tbaa !11
  br label %66

66:                                               ; preds = %64, %61
  %67 = phi i32 [ %63, %61 ], [ %65, %64 ]
  store i32 %67, ptr %12, align 4, !tbaa !11
  %68 = load i32, ptr %14, align 4, !tbaa !11
  %69 = load i32, ptr %13, align 4, !tbaa !11
  %70 = add nsw i32 %68, %69
  %71 = icmp slt i32 %70, 0
  br i1 %71, label %72, label %77

72:                                               ; preds = %66
  %73 = load i32, ptr %14, align 4, !tbaa !11
  %74 = load i32, ptr %13, align 4, !tbaa !11
  %75 = add nsw i32 %73, %74
  %76 = sub nsw i32 0, %75
  br label %81

77:                                               ; preds = %66
  %78 = load i32, ptr %14, align 4, !tbaa !11
  %79 = load i32, ptr %13, align 4, !tbaa !11
  %80 = add nsw i32 %78, %79
  br label %81

81:                                               ; preds = %77, %72
  %82 = phi i32 [ %76, %72 ], [ %80, %77 ]
  store i32 %82, ptr %13, align 4, !tbaa !11
  %83 = load i32, ptr %12, align 4, !tbaa !11
  %84 = load i32, ptr %11, align 4, !tbaa !11
  %85 = icmp slt i32 %83, %84
  br i1 %85, label %86, label %89

86:                                               ; preds = %81
  %87 = load i32, ptr %12, align 4, !tbaa !11
  store i32 %87, ptr %11, align 4, !tbaa !11
  %88 = load i32, ptr %10, align 4, !tbaa !11
  store i32 %88, ptr %8, align 4, !tbaa !11
  br label %89

89:                                               ; preds = %86, %81
  %90 = load i32, ptr %13, align 4, !tbaa !11
  %91 = load i32, ptr %11, align 4, !tbaa !11
  %92 = icmp slt i32 %90, %91
  br i1 %92, label %93, label %95

93:                                               ; preds = %89
  %94 = load i32, ptr %9, align 4, !tbaa !11
  store i32 %94, ptr %8, align 4, !tbaa !11
  br label %95

95:                                               ; preds = %93, %89
  %96 = load i32, ptr %10, align 4, !tbaa !11
  store i32 %96, ptr %9, align 4, !tbaa !11
  %97 = load ptr, ptr %5, align 8, !tbaa !8
  %98 = load i8, ptr %97, align 1, !tbaa !10
  %99 = zext i8 %98 to i32
  %100 = load i32, ptr %8, align 4, !tbaa !11
  %101 = add nsw i32 %100, %99
  store i32 %101, ptr %8, align 4, !tbaa !11
  %102 = load i32, ptr %8, align 4, !tbaa !11
  %103 = trunc i32 %102 to i8
  %104 = load ptr, ptr %5, align 8, !tbaa !8
  %105 = getelementptr inbounds nuw i8, ptr %104, i32 1
  store ptr %105, ptr %5, align 8, !tbaa !8
  store i8 %103, ptr %104, align 1, !tbaa !10
  call void @llvm.lifetime.end.p0(i64 4, ptr %14) #7
  call void @llvm.lifetime.end.p0(i64 4, ptr %13) #7
  call void @llvm.lifetime.end.p0(i64 4, ptr %12) #7
  call void @llvm.lifetime.end.p0(i64 4, ptr %11) #7
  call void @llvm.lifetime.end.p0(i64 4, ptr %10) #7
  br label %33, !llvm.loop !208

106:                                              ; preds = %33
  call void @llvm.lifetime.end.p0(i64 4, ptr %9) #7
  call void @llvm.lifetime.end.p0(i64 4, ptr %8) #7
  call void @llvm.lifetime.end.p0(i64 8, ptr %7) #7
  ret void
}