; Function Attrs: nofree norecurse nosync nounwind memory(argmem: readwrite) uwtable
define internal void @png_read_filter_row_paeth_1byte_pixel(ptr noundef readonly captures(none) %0, ptr noundef captures(address) %1, ptr noundef readonly captures(none) %2) #6 {
  %4 = getelementptr inbounds nuw i8, ptr %0, i64 8
  %5 = load i64, ptr %4, align 8, !tbaa !79
  %6 = getelementptr inbounds nuw i8, ptr %1, i64 %5
  %7 = load i8, ptr %2, align 1, !tbaa !3
  %8 = zext i8 %7 to i32
  %9 = load i8, ptr %1, align 1, !tbaa !3
  %10 = zext i8 %9 to i32
  %11 = add nuw nsw i32 %10, %8
  %12 = trunc i32 %11 to i8
  store i8 %12, ptr %1, align 1, !tbaa !3
  %13 = icmp samesign ugt i64 %5, 1
  br i1 %13, label %.lr.ph.preheader, label %._crit_edge

.lr.ph.preheader:                                 ; preds = %3
  %.047 = getelementptr inbounds nuw i8, ptr %1, i64 1
  br label %.lr.ph

.lr.ph:                                           ; preds = %.lr.ph.preheader, %.lr.ph
  %.051 = phi ptr [ %.0, %.lr.ph ], [ %.047, %.lr.ph.preheader ]
  %.pn50 = phi ptr [ %.038, %.lr.ph ], [ %2, %.lr.ph.preheader ]
  %.04049 = phi i32 [ %27, %.lr.ph ], [ %11, %.lr.ph.preheader ]
  %.04148 = phi i32 [ %16, %.lr.ph ], [ %8, %.lr.ph.preheader ]
  %.038 = getelementptr inbounds nuw i8, ptr %.pn50, i64 1
  %14 = and i32 %.04049, 255
  %15 = load i8, ptr %.038, align 1, !tbaa !3
  %16 = zext i8 %15 to i32
  %17 = sub nsw i32 %16, %.04148
  %18 = sub nsw i32 %14, %.04148
  %19 = tail call i32 @llvm.abs.i32(i32 %17, i1 true)
  %20 = tail call i32 @llvm.abs.i32(i32 %18, i1 true)
  %21 = add nsw i32 %17, %18
  %22 = tail call i32 @llvm.abs.i32(i32 %21, i1 true)
  %23 = icmp samesign ult i32 %20, %19
  %.1 = select i1 %23, i32 %16, i32 %14
  %.039 = tail call i32 @llvm.umin.i32(i32 %20, i32 %19)
  %24 = icmp samesign ult i32 %22, %.039
  %.2 = select i1 %24, i32 %.04148, i32 %.1
  %25 = load i8, ptr %.051, align 1, !tbaa !3
  %26 = zext i8 %25 to i32
  %27 = add nuw nsw i32 %.2, %26
  %28 = trunc i32 %27 to i8
  store i8 %28, ptr %.051, align 1, !tbaa !3
  %.0 = getelementptr inbounds nuw i8, ptr %.051, i64 1
  %29 = icmp ult ptr %.0, %6
  br i1 %29, label %.lr.ph, label %._crit_edge, !llvm.loop !263

._crit_edge:                                      ; preds = %.lr.ph, %3
  ret void
}